target datalayout = "e-m:e-p270:32:32-p271:32:32-p272:64:64-i64:64-i128:128-f80:128-n8:16:32:64-S128"
target triple = "x86_64-pc-linux-gnu"

@.str.1 = private unnamed_addr constant [108 x i8] c"generated/home/dtcxzyw/WorkSpace/Projects/compilers/llvm-opt-benchmark/bench/hdf5/hdf5/src/H5Zscaleoffset.c\00", align 1
@__func__.H5Z__can_apply_scaleoffset = private unnamed_addr constant [27 x i8] c"H5Z__can_apply_scaleoffset\00", align 1
@H5E_ARGS_g = external global i64, align 8
@H5E_BADTYPE_g = external global i64, align 8
@.str.2 = private unnamed_addr constant [15 x i8] c"not a datatype\00", align 1
@H5E_PLINE_g = external global i64, align 8
@.str.3 = private unnamed_addr constant [19 x i8] c"bad datatype class\00", align 1
@.str.4 = private unnamed_addr constant [18 x i8] c"bad datatype size\00", align 1
@.str.5 = private unnamed_addr constant [41 x i8] c"can't retrieve datatype endianness order\00", align 1
@.str.6 = private unnamed_addr constant [30 x i8] c"bad datatype endianness order\00", align 1
@.str.7 = private unnamed_addr constant [44 x i8] c"datatype class not supported by scaleoffset\00", align 1

; Function Attrs: nounwind uwtable
define internal i32 @H5Z__can_apply_scaleoffset(i64 noundef %0, i64 noundef %1, i64 noundef %2) #0 {
  %4 = alloca i64, align 8
  %5 = alloca i64, align 8
  %6 = alloca i64, align 8
  %7 = alloca ptr, align 8
  %8 = alloca i32, align 4
  %9 = alloca i32, align 4
  %10 = alloca i32, align 4
  %11 = alloca i8, align 1
  store i64 %0, ptr %4, align 8
  store i64 %1, ptr %5, align 8
  store i64 %2, ptr %6, align 8
  store i32 1, ptr %10, align 4
  store i8 0, ptr %11, align 1
  %12 = load i64, ptr %5, align 8
  %13 = call ptr @H5I_object_verify(i64 noundef %12, i32 noundef 3)
  store ptr %13, ptr %7, align 8
  %14 = icmp eq ptr null, %13
  br i1 %14, label %15, label %30

15:                                               ; preds = %3
  br label %16

16:                                               ; preds = %15
  br label %17

17:                                               ; preds = %16
  br label %18

18:                                               ; preds = %17
  %19 = load i64, ptr @H5E_ARGS_g, align 8
  %20 = load i64, ptr @H5E_BADTYPE_g, align 8
  %21 = call i32 (ptr, ptr, i32, i64, i64, ptr, ...) @H5E_printf_stack(ptr noundef @.str.1, ptr noundef @__func__.H5Z__can_apply_scaleoffset, i32 noundef 765, i64 noundef %19, i64 noundef %20, ptr noundef @.str.2)
  br label %22

22:                                               ; preds = %18
  store i8 1, ptr %11, align 1
  %23 = load i8, ptr %11, align 1
  %24 = trunc i8 %23 to i1
  %25 = zext i1 %24 to i8
  store i8 %25, ptr %11, align 1
  br label %26

26:                                               ; preds = %22
  br label %27

27:                                               ; preds = %26
  store i32 -1, ptr %10, align 4
  br label %131

28:                                               ; No predecessors!
  br label %29

29:                                               ; preds = %28
  br label %30

30:                                               ; preds = %29, %3
  %31 = load ptr, ptr %7, align 8
  %32 = call i32 @H5T_get_class(ptr noundef %31, i32 noundef 1)
  store i32 %32, ptr %8, align 4
  %33 = icmp eq i32 %32, -1
  br i1 %33, label %34, label %49

34:                                               ; preds = %30
  br label %35

35:                                               ; preds = %34
  br label %36

36:                                               ; preds = %35
  br label %37

37:                                               ; preds = %36
  %38 = load i64, ptr @H5E_PLINE_g, align 8
  %39 = load i64, ptr @H5E_BADTYPE_g, align 8
  %40 = call i32 (ptr, ptr, i32, i64, i64, ptr, ...) @H5E_printf_stack(ptr noundef @.str.1, ptr noundef @__func__.H5Z__can_apply_scaleoffset, i32 noundef 769, i64 noundef %38, i64 noundef %39, ptr noundef @.str.3)
  br label %41

41:                                               ; preds = %37
  store i8 1, ptr %11, align 1
  %42 = load i8, ptr %11, align 1
  %43 = trunc i8 %42 to i1
  %44 = zext i1 %43 to i8
  store i8 %44, ptr %11, align 1
  br label %45

45:                                               ; preds = %41
  br label %46

46:                                               ; preds = %45
  store i32 -1, ptr %10, align 4
  br label %131

47:                                               ; No predecessors!
  br label %48

48:                                               ; preds = %47
  br label %49

49:                                               ; preds = %48, %30
  %50 = load ptr, ptr %7, align 8
  %51 = call i64 @H5T_get_size(ptr noundef %50)
  %52 = icmp eq i64 %51, 0
  br i1 %52, label %53, label %68

53:                                               ; preds = %49
  br label %54

54:                                               ; preds = %53
  br label %55

55:                                               ; preds = %54
  br label %56

56:                                               ; preds = %55
  %57 = load i64, ptr @H5E_PLINE_g, align 8
  %58 = load i64, ptr @H5E_BADTYPE_g, align 8
  %59 = call i32 (ptr, ptr, i32, i64, i64, ptr, ...) @H5E_printf_stack(ptr noundef @.str.1, ptr noundef @__func__.H5Z__can_apply_scaleoffset, i32 noundef 773, i64 noundef %57, i64 noundef %58, ptr noundef @.str.4)
  br label %60

60:                                               ; preds = %56
  store i8 1, ptr %11, align 1
  %61 = load i8, ptr %11, align 1
  %62 = trunc i8 %61 to i1
  %63 = zext i1 %62 to i8
  store i8 %63, ptr %11, align 1
  br label %64

64:                                               ; preds = %60
  br label %65

65:                                               ; preds = %64
  store i32 -1, ptr %10, align 4
  br label %131

66:                                               ; No predecessors!
  br label %67

67:                                               ; preds = %66
  br label %68

68:                                               ; preds = %67, %49
  %69 = load i32, ptr %8, align 4
  %70 = icmp eq i32 %69, 0
  br i1 %70, label %74, label %71

71:                                               ; preds = %68
  %72 = load i32, ptr %8, align 4
  %73 = icmp eq i32 %72, 1
  br i1 %73, label %74, label %115

74:                                               ; preds = %71, %68
  %75 = load ptr, ptr %7, align 8
  %76 = call i32 @H5T_get_order(ptr noundef %75)
  store i32 %76, ptr %9, align 4
  %77 = icmp eq i32 %76, -1
  br i1 %77, label %78, label %93

78:                                               ; preds = %74
  br label %79

79:                                               ; preds = %78
  br label %80

80:                                               ; preds = %79
  br label %81

81:                                               ; preds = %80
  %82 = load i64, ptr @H5E_PLINE_g, align 8
  %83 = load i64, ptr @H5E_BADTYPE_g, align 8
  %84 = call i32 (ptr, ptr, i32, i64, i64, ptr, ...) @H5E_printf_stack(ptr noundef @.str.1, ptr noundef @__func__.H5Z__can_apply_scaleoffset, i32 noundef 778, i64 noundef %82, i64 noundef %83, ptr noundef @.str.5)
  br label %85

85:                                               ; preds = %81
  store i8 1, ptr %11, align 1
  %86 = load i8, ptr %11, align 1
  %87 = trunc i8 %86 to i1
  %88 = zext i1 %87 to i8
  store i8 %88, ptr %11, align 1
  br label %89

89:                                               ; preds = %85
  br label %90

90:                                               ; preds = %89
  store i32 -1, ptr %10, align 4
  br label %131

91:                                               ; No predecessors!
  br label %92

92:                                               ; preds = %91
  br label %93

93:                                               ; preds = %92, %74
  %94 = load i32, ptr %9, align 4
  %95 = icmp ne i32 %94, 0
  br i1 %95, label %96, label %114

96:                                               ; preds = %93
  %97 = load i32, ptr %9, align 4
  %98 = icmp ne i32 %97, 1
  br i1 %98, label %99, label %114

99:                                               ; preds = %96
  br label %100

100:                                              ; preds = %99
  br label %101

101:                                              ; preds = %100
  br label %102

102:                                              ; preds = %101
  %103 = load i64, ptr @H5E_PLINE_g, align 8
  %104 = load i64, ptr @H5E_BADTYPE_g, align 8
  %105 = call i32 (ptr, ptr, i32, i64, i64, ptr, ...) @H5E_printf_stack(ptr noundef @.str.1, ptr noundef @__func__.H5Z__can_apply_scaleoffset, i32 noundef 782, i64 noundef %103, i64 noundef %104, ptr noundef @.str.6)
  br label %106

106:                                              ; preds = %102
  store i8 1, ptr %11, align 1
  %107 = load i8, ptr %11, align 1
  %108 = trunc i8 %107 to i1
  %109 = zext i1 %108 to i8
  store i8 %109, ptr %11, align 1
  br label %110

110:                                              ; preds = %106
  br label %111

111:                                              ; preds = %110
  store i32 0, ptr %10, align 4
  br label %131

112:                                              ; No predecessors!
  br label %113

113:                                              ; preds = %112
  br label %114

114:                                              ; preds = %113, %96, %93
  br label %130

115:                                              ; preds = %71
  br label %116

116:                                              ; preds = %115
  br label %117

117:                                              ; preds = %116
  br label %118

118:                                              ; preds = %117
  %119 = load i64, ptr @H5E_PLINE_g, align 8
  %120 = load i64, ptr @H5E_BADTYPE_g, align 8
  %121 = call i32 (ptr, ptr, i32, i64, i64, ptr, ...) @H5E_printf_stack(ptr noundef @.str.1, ptr noundef @__func__.H5Z__can_apply_scaleoffset, i32 noundef 785, i64 noundef %119, i64 noundef %120, ptr noundef @.str.7)
  br label %122

122:                                              ; preds = %118
  store i8 1, ptr %11, align 1
  %123 = load i8, ptr %11, align 1
  %124 = trunc i8 %123 to i1
  %125 = zext i1 %124 to i8
  store i8 %125, ptr %11, align 1
  br label %126

126:                                              ; preds = %122
  br label %127

127:                                              ; preds = %126
  store i32 0, ptr %10, align 4
  br label %131

128:                                              ; No predecessors!
  br label %129

129:                                              ; preds = %128
  br label %130

130:                                              ; preds = %129, %114
  br label %131

131:                                              ; preds = %130, %127, %111, %90, %65, %46, %27
  %132 = load i32, ptr %10, align 4
  ret i32 %132
}