; Function Attrs: nounwind uwtable
define internal range(i32 -1, 2) i32 @H5Z__can_apply_scaleoffset(i64 %0, i64 noundef %1, i64 %2) #0 {
  %4 = tail call ptr @H5I_object_verify(i64 noundef %1, i32 noundef 3) #12
  %5 = icmp eq ptr %4, null
  br i1 %5, label %6, label %10

6:                                                ; preds = %3
  %7 = load i64, ptr @H5E_ARGS_g, align 8
  %8 = load i64, ptr @H5E_BADTYPE_g, align 8
  %9 = tail call i32 (ptr, ptr, i32, i64, i64, ptr, ...) @H5E_printf_stack(ptr noundef nonnull @.str.1, ptr noundef nonnull @__func__.H5Z__can_apply_scaleoffset, i32 noundef 765, i64 noundef %7, i64 noundef %8, ptr noundef nonnull @.str.2) #12
  br label %41

10:                                               ; preds = %3
  %11 = tail call i32 @H5T_get_class(ptr noundef nonnull %4, i32 noundef 1) #12
  %12 = icmp eq i32 %11, -1
  br i1 %12, label %13, label %17

13:                                               ; preds = %10
  %14 = load i64, ptr @H5E_PLINE_g, align 8
  %15 = load i64, ptr @H5E_BADTYPE_g, align 8
  %16 = tail call i32 (ptr, ptr, i32, i64, i64, ptr, ...) @H5E_printf_stack(ptr noundef nonnull @.str.1, ptr noundef nonnull @__func__.H5Z__can_apply_scaleoffset, i32 noundef 769, i64 noundef %14, i64 noundef %15, ptr noundef nonnull @.str.3) #12
  br label %41

17:                                               ; preds = %10
  %18 = tail call i64 @H5T_get_size(ptr noundef nonnull %4) #12
  %19 = icmp eq i64 %18, 0
  br i1 %19, label %20, label %24

20:                                               ; preds = %17
  %21 = load i64, ptr @H5E_PLINE_g, align 8
  %22 = load i64, ptr @H5E_BADTYPE_g, align 8
  %23 = tail call i32 (ptr, ptr, i32, i64, i64, ptr, ...) @H5E_printf_stack(ptr noundef nonnull @.str.1, ptr noundef nonnull @__func__.H5Z__can_apply_scaleoffset, i32 noundef 773, i64 noundef %21, i64 noundef %22, ptr noundef nonnull @.str.4) #12
  br label %41

24:                                               ; preds = %17
  %or.cond = icmp ult i32 %11, 2
  br i1 %or.cond, label %25, label %37

25:                                               ; preds = %24
  %26 = tail call i32 @H5T_get_order(ptr noundef nonnull %4) #12
  %27 = icmp eq i32 %26, -1
  br i1 %27, label %28, label %32

28:                                               ; preds = %25
  %29 = load i64, ptr @H5E_PLINE_g, align 8
  %30 = load i64, ptr @H5E_BADTYPE_g, align 8
  %31 = tail call i32 (ptr, ptr, i32, i64, i64, ptr, ...) @H5E_printf_stack(ptr noundef nonnull @.str.1, ptr noundef nonnull @__func__.H5Z__can_apply_scaleoffset, i32 noundef 778, i64 noundef %29, i64 noundef %30, ptr noundef nonnull @.str.5) #12
  br label %41

32:                                               ; preds = %25
  %or.cond3 = icmp ugt i32 %26, 1
  br i1 %or.cond3, label %33, label %41

33:                                               ; preds = %32
  %34 = load i64, ptr @H5E_PLINE_g, align 8
  %35 = load i64, ptr @H5E_BADTYPE_g, align 8
  %36 = tail call i32 (ptr, ptr, i32, i64, i64, ptr, ...) @H5E_printf_stack(ptr noundef nonnull @.str.1, ptr noundef nonnull @__func__.H5Z__can_apply_scaleoffset, i32 noundef 782, i64 noundef %34, i64 noundef %35, ptr noundef nonnull @.str.6) #12
  br label %41

37:                                               ; preds = %24
  %38 = load i64, ptr @H5E_PLINE_g, align 8
  %39 = load i64, ptr @H5E_BADTYPE_g, align 8
  %40 = tail call i32 (ptr, ptr, i32, i64, i64, ptr, ...) @H5E_printf_stack(ptr noundef nonnull @.str.1, ptr noundef nonnull @__func__.H5Z__can_apply_scaleoffset, i32 noundef 785, i64 noundef %38, i64 noundef %39, ptr noundef nonnull @.str.7) #12
  br label %41

41:                                               ; preds = %32, %37, %33, %28, %20, %13, %6
  %.0 = phi i32 [ -1, %6 ], [ -1, %13 ], [ -1, %20 ], [ -1, %28 ], [ 0, %33 ], [ 1, %32 ], [ 0, %37 ]
  ret i32 %.0
}